; Function Attrs: mustprogress uwtable
define dso_local noundef zeroext i1 @_ZN5cmsys11SystemTools16FileIsExecutableERKNSt7__cxx1112basic_stringIcSt11char_traitsIcESaIcEEE(ptr noundef nonnull readonly align 8 captures(none) dereferenceable(32) %0) local_unnamed_addr #6 align 2 {
  %2 = tail call noundef zeroext i1 @_ZN5cmsys11SystemTools15FileIsDirectoryERKNSt7__cxx1112basic_stringIcSt11char_traitsIcESaIcEEE(ptr noundef nonnull align 8 dereferenceable(32) %0)
  %3 = getelementptr inbounds nuw i8, ptr %0, i64 8
  %4 = load i64, ptr %3, align 8
  %5 = icmp eq i64 %4, 0
  %or.cond = select i1 %2, i1 true, i1 %5
  br i1 %or.cond, label %_ZN5cmsys11SystemTools14TestFileAccessERKNSt7__cxx1112basic_stringIcSt11char_traitsIcESaIcEEEi.exit, label %6

6:                                                ; preds = %1
  %7 = load ptr, ptr %0, align 8, !tbaa !21
  %8 = tail call i32 @access(ptr noundef %7, i32 noundef 1) #39
  %9 = icmp eq i32 %8, 0
  br label %_ZN5cmsys11SystemTools14TestFileAccessERKNSt7__cxx1112basic_stringIcSt11char_traitsIcESaIcEEEi.exit

_ZN5cmsys11SystemTools14TestFileAccessERKNSt7__cxx1112basic_stringIcSt11char_traitsIcESaIcEEEi.exit: ; preds = %6, %1
  %10 = phi i1 [ false, %1 ], [ %9, %6 ]
  ret i1 %10
}